target datalayout = "e-m:e-p270:32:32-p271:32:32-p272:64:64-i64:64-i128:128-f80:128-n8:16:32:64-S128"
target triple = "x86_64-pc-linux-gnu"

%struct.AVOptionRanges = type { ptr, i32, i32 }
%struct.AVOptionRange = type { ptr, double, double, double, double, i32 }

; Function Attrs: nounwind uwtable
define void @av_opt_freep_ranges(ptr noundef %0) #0 {
  %2 = alloca ptr, align 8
  %3 = alloca i32, align 4
  %4 = alloca ptr, align 8
  %5 = alloca i32, align 4
  %6 = alloca ptr, align 8
  store ptr %0, ptr %2, align 8, !tbaa !119
  call void @llvm.lifetime.start.p0(i64 4, ptr %3) #11
  call void @llvm.lifetime.start.p0(i64 8, ptr %4) #11
  %7 = load ptr, ptr %2, align 8, !tbaa !119
  %8 = load ptr, ptr %7, align 8, !tbaa !82
  store ptr %8, ptr %4, align 8, !tbaa !82
  %9 = load ptr, ptr %4, align 8, !tbaa !82
  %10 = icmp ne ptr %9, null
  br i1 %10, label %12, label %11

11:                                               ; preds = %1
  store i32 1, ptr %5, align 4
  br label %50

12:                                               ; preds = %1
  store i32 0, ptr %3, align 4, !tbaa !20
  br label %13

13:                                               ; preds = %43, %12
  %14 = load i32, ptr %3, align 4, !tbaa !20
  %15 = load ptr, ptr %4, align 8, !tbaa !82
  %16 = getelementptr inbounds nuw %struct.AVOptionRanges, ptr %15, i32 0, i32 1
  %17 = load i32, ptr %16, align 8, !tbaa !84
  %18 = load ptr, ptr %4, align 8, !tbaa !82
  %19 = getelementptr inbounds nuw %struct.AVOptionRanges, ptr %18, i32 0, i32 2
  %20 = load i32, ptr %19, align 4, !tbaa !122
  %21 = mul nsw i32 %17, %20
  %22 = icmp slt i32 %14, %21
  br i1 %22, label %23, label %46

23:                                               ; preds = %13
  call void @llvm.lifetime.start.p0(i64 8, ptr %6) #11
  %24 = load ptr, ptr %4, align 8, !tbaa !82
  %25 = getelementptr inbounds nuw %struct.AVOptionRanges, ptr %24, i32 0, i32 0
  %26 = load ptr, ptr %25, align 8, !tbaa !87
  %27 = load i32, ptr %3, align 4, !tbaa !20
  %28 = sext i32 %27 to i64
  %29 = getelementptr inbounds ptr, ptr %26, i64 %28
  %30 = load ptr, ptr %29, align 8, !tbaa !88
  store ptr %30, ptr %6, align 8, !tbaa !88
  %31 = load ptr, ptr %6, align 8, !tbaa !88
  %32 = icmp ne ptr %31, null
  br i1 %32, label %33, label %42

33:                                               ; preds = %23
  %34 = load ptr, ptr %6, align 8, !tbaa !88
  %35 = getelementptr inbounds nuw %struct.AVOptionRange, ptr %34, i32 0, i32 0
  call void @av_freep(ptr noundef %35)
  %36 = load ptr, ptr %4, align 8, !tbaa !82
  %37 = getelementptr inbounds nuw %struct.AVOptionRanges, ptr %36, i32 0, i32 0
  %38 = load ptr, ptr %37, align 8, !tbaa !87
  %39 = load i32, ptr %3, align 4, !tbaa !20
  %40 = sext i32 %39 to i64
  %41 = getelementptr inbounds ptr, ptr %38, i64 %40
  call void @av_freep(ptr noundef %41)
  br label %42

42:                                               ; preds = %33, %23
  call void @llvm.lifetime.end.p0(i64 8, ptr %6) #11
  br label %43

43:                                               ; preds = %42
  %44 = load i32, ptr %3, align 4, !tbaa !20
  %45 = add nsw i32 %44, 1
  store i32 %45, ptr %3, align 4, !tbaa !20
  br label %13, !llvm.loop !127

46:                                               ; preds = %13
  %47 = load ptr, ptr %4, align 8, !tbaa !82
  %48 = getelementptr inbounds nuw %struct.AVOptionRanges, ptr %47, i32 0, i32 0
  call void @av_freep(ptr noundef %48)
  %49 = load ptr, ptr %2, align 8, !tbaa !119
  call void @av_freep(ptr noundef %49)
  store i32 0, ptr %5, align 4
  br label %50

50:                                               ; preds = %46, %11
  call void @llvm.lifetime.end.p0(i64 8, ptr %4) #11
  call void @llvm.lifetime.end.p0(i64 4, ptr %3) #11
  %51 = load i32, ptr %5, align 4
  switch i32 %51, label %53 [
    i32 0, label %52
    i32 1, label %52
  ]

52:                                               ; preds = %50, %50
  ret void

53:                                               ; preds = %50
  unreachable
}