; Function Attrs: nounwind uwtable
define void @av_opt_freep_ranges(ptr noundef %0) local_unnamed_addr #2 {
  %2 = load ptr, ptr %0, align 8, !tbaa !71
  %.not = icmp eq ptr %2, null
  br i1 %.not, label %23, label %.preheader

.preheader:                                       ; preds = %1
  %3 = getelementptr inbounds nuw i8, ptr %2, i64 8
  %4 = getelementptr inbounds nuw i8, ptr %2, i64 12
  %5 = load i32, ptr %3, align 8, !tbaa !76
  %6 = load i32, ptr %4, align 4, !tbaa !73
  %7 = mul nsw i32 %6, %5
  %8 = icmp sgt i32 %7, 0
  br i1 %8, label %.lr.ph, label %._crit_edge

.lr.ph:                                           ; preds = %.preheader, %17
  %9 = phi i32 [ %18, %17 ], [ %6, %.preheader ]
  %10 = phi i32 [ %19, %17 ], [ %5, %.preheader ]
  %indvars.iv = phi i64 [ %indvars.iv.next, %17 ], [ 0, %.preheader ]
  %11 = load ptr, ptr %2, align 8, !tbaa !77
  %12 = getelementptr inbounds nuw ptr, ptr %11, i64 %indvars.iv
  %13 = load ptr, ptr %12, align 8, !tbaa !78
  %.not15 = icmp eq ptr %13, null
  br i1 %.not15, label %17, label %14

14:                                               ; preds = %.lr.ph
  tail call void @av_freep(ptr noundef nonnull %13) #18
  %15 = load ptr, ptr %2, align 8, !tbaa !77
  %16 = getelementptr inbounds nuw ptr, ptr %15, i64 %indvars.iv
  tail call void @av_freep(ptr noundef %16) #18
  %.pre = load i32, ptr %3, align 8, !tbaa !76
  %.pre18 = load i32, ptr %4, align 4, !tbaa !73
  br label %17

17:                                               ; preds = %14, %.lr.ph
  %18 = phi i32 [ %.pre18, %14 ], [ %9, %.lr.ph ]
  %19 = phi i32 [ %.pre, %14 ], [ %10, %.lr.ph ]
  %indvars.iv.next = add nuw nsw i64 %indvars.iv, 1
  %20 = mul nsw i32 %18, %19
  %21 = sext i32 %20 to i64
  %22 = icmp slt i64 %indvars.iv.next, %21
  br i1 %22, label %.lr.ph, label %._crit_edge, !llvm.loop !84

._crit_edge:                                      ; preds = %17, %.preheader
  tail call void @av_freep(ptr noundef nonnull %2) #18
  tail call void @av_freep(ptr noundef nonnull %0) #18
  br label %23

23:                                               ; preds = %1, %._crit_edge
  ret void
}